target datalayout = "e-m:e-p270:32:32-p271:32:32-p272:64:64-i64:64-i128:128-f80:128-n8:16:32:64-S128"
target triple = "x86_64-pc-linux-gnu"

@Verbose = external global i8, align 1
@stderr = external global ptr, align 8
@.str.8 = private unnamed_addr constant [10 x i8] c"%.2f sec\0A\00", align 1
@Heap = internal global ptr null, align 8
@.str.14 = private unnamed_addr constant [29 x i8] c"Calculating shortest paths: \00", align 1
@.str.15 = private unnamed_addr constant [58 x i8] c"integer overflow when trying to allocate %zu * %zu bytes\0A\00", align 1
@.str.16 = private unnamed_addr constant [49 x i8] c"out of memory when trying to allocate %zu bytes\0A\00", align 1

; Function Attrs: inlinehint nounwind uwtable
define internal ptr @gv_calloc(i64 noundef %0, i64 noundef %1) #2 {
  %3 = alloca i64, align 8
  %4 = alloca i64, align 8
  %5 = alloca ptr, align 8
  store i64 %0, ptr %3, align 8, !tbaa !17
  store i64 %1, ptr %4, align 8, !tbaa !17
  %6 = load i64, ptr %3, align 8, !tbaa !17
  %7 = icmp ugt i64 %6, 0
  br i1 %7, label %8, label %18

8:                                                ; preds = %2
  %9 = load i64, ptr %3, align 8, !tbaa !17
  %10 = udiv i64 -1, %9
  %11 = load i64, ptr %4, align 8, !tbaa !17
  %12 = icmp ult i64 %10, %11
  br i1 %12, label %13, label %18

13:                                               ; preds = %8
  %14 = load ptr, ptr @stderr, align 8, !tbaa !19
  %15 = load i64, ptr %3, align 8, !tbaa !17
  %16 = load i64, ptr %4, align 8, !tbaa !17
  %17 = call i32 (ptr, ptr, ...) @fprintf(ptr noundef %14, ptr noundef @.str.15, i64 noundef %15, i64 noundef %16) #11
  call void @graphviz_exit(i32 noundef 1) #12
  unreachable

18:                                               ; preds = %8, %2
  call void @llvm.lifetime.start.p0(i64 8, ptr %5) #11
  %19 = load i64, ptr %3, align 8, !tbaa !17
  %20 = load i64, ptr %4, align 8, !tbaa !17
  %21 = call noalias ptr @calloc(i64 noundef %19, i64 noundef %20) #13
  store ptr %21, ptr %5, align 8, !tbaa !21
  %22 = load i64, ptr %3, align 8, !tbaa !17
  %23 = icmp ugt i64 %22, 0
  br i1 %23, label %24, label %36

24:                                               ; preds = %18
  %25 = load i64, ptr %4, align 8, !tbaa !17
  %26 = icmp ugt i64 %25, 0
  br i1 %26, label %27, label %36

27:                                               ; preds = %24
  %28 = load ptr, ptr %5, align 8, !tbaa !21
  %29 = icmp eq ptr %28, null
  br i1 %29, label %30, label %36

30:                                               ; preds = %27
  %31 = load ptr, ptr @stderr, align 8, !tbaa !19
  %32 = load i64, ptr %3, align 8, !tbaa !17
  %33 = load i64, ptr %4, align 8, !tbaa !17
  %34 = mul i64 %32, %33
  %35 = call i32 (ptr, ptr, ...) @fprintf(ptr noundef %31, ptr noundef @.str.16, i64 noundef %34) #11
  call void @graphviz_exit(i32 noundef 1) #12
  unreachable

36:                                               ; preds = %27, %24, %18
  %37 = load ptr, ptr %5, align 8, !tbaa !21
  call void @llvm.lifetime.end.p0(i64 8, ptr %5) #11
  ret ptr %37
}

; Function Attrs: nounwind uwtable
define void @shortest_path(ptr noundef %0, i32 noundef %1) #0 {
  %3 = alloca ptr, align 8
  %4 = alloca i32, align 4
  %5 = alloca ptr, align 8
  store ptr %0, ptr %3, align 8, !tbaa !22
  store i32 %1, ptr %4, align 4, !tbaa !3
  call void @llvm.lifetime.start.p0(i64 8, ptr %5) #11
  %6 = load i32, ptr %4, align 4, !tbaa !3
  %7 = add nsw i32 %6, 1
  %8 = sext i32 %7 to i64
  %9 = call ptr @gv_calloc(i64 noundef %8, i64 noundef 8)
  store ptr %9, ptr @Heap, align 8, !tbaa !77
  %10 = load i8, ptr @Verbose, align 1, !tbaa !24
  %11 = icmp ne i8 %10, 0
  br i1 %11, label %12, label %15

12:                                               ; preds = %2
  %13 = load ptr, ptr @stderr, align 8, !tbaa !19
  %14 = call i32 (ptr, ptr, ...) @fprintf(ptr noundef %13, ptr noundef @.str.14) #11
  call void @start_timer()
  br label %15

15:                                               ; preds = %12, %2
  %16 = load ptr, ptr %3, align 8, !tbaa !22
  %17 = call ptr @agfstnode(ptr noundef %16)
  store ptr %17, ptr %5, align 8, !tbaa !29
  br label %18

18:                                               ; preds = %24, %15
  %19 = load ptr, ptr %5, align 8, !tbaa !29
  %20 = icmp ne ptr %19, null
  br i1 %20, label %21, label %28

21:                                               ; preds = %18
  %22 = load ptr, ptr %3, align 8, !tbaa !22
  %23 = load ptr, ptr %5, align 8, !tbaa !29
  call void @s1(ptr noundef %22, ptr noundef %23)
  br label %24

24:                                               ; preds = %21
  %25 = load ptr, ptr %3, align 8, !tbaa !22
  %26 = load ptr, ptr %5, align 8, !tbaa !29
  %27 = call ptr @agnxtnode(ptr noundef %25, ptr noundef %26)
  store ptr %27, ptr %5, align 8, !tbaa !29
  br label %18, !llvm.loop !122

28:                                               ; preds = %18
  %29 = load i8, ptr @Verbose, align 1, !tbaa !24
  %30 = icmp ne i8 %29, 0
  br i1 %30, label %31, label %35

31:                                               ; preds = %28
  %32 = load ptr, ptr @stderr, align 8, !tbaa !19
  %33 = call double @elapsed_sec()
  %34 = call i32 (ptr, ptr, ...) @fprintf(ptr noundef %32, ptr noundef @.str.8, double noundef %33) #11
  br label %35

35:                                               ; preds = %31, %28
  %36 = load ptr, ptr @Heap, align 8, !tbaa !77
  call void @free(ptr noundef %36) #11
  call void @llvm.lifetime.end.p0(i64 8, ptr %5) #11
  ret void
}