; Function Attrs: nounwind uwtable
define void @shortest_path(ptr noundef %0, i32 noundef %1) local_unnamed_addr #4 {
  %3 = add nsw i32 %1, 1
  %4 = sext i32 %3 to i64
  %mul.ov.i = icmp slt i32 %1, -1
  br i1 %mul.ov.i, label %5, label %8

5:                                                ; preds = %2
  %6 = load ptr, ptr @stderr, align 8, !tbaa !3
  %7 = tail call i32 (ptr, ptr, ...) @fprintf(ptr noundef %6, ptr noundef nonnull @.str.15, i64 noundef range(i64 -2147483648, 4294836226) %4, i64 noundef 8) #18
  tail call fastcc void @graphviz_exit() #19
  unreachable

8:                                                ; preds = %2
  %9 = icmp ne i32 %3, 0
  %10 = tail call noalias ptr @calloc(i64 noundef range(i64 -2147483648, 4294836226) %4, i64 noundef 8) #20
  %11 = icmp eq ptr %10, null
  %or.cond3.i = and i1 %9, %11
  br i1 %or.cond3.i, label %12, label %gv_calloc.exit

12:                                               ; preds = %8
  %13 = load ptr, ptr @stderr, align 8, !tbaa !3
  %14 = shl nuw nsw i64 %4, 3
  %15 = tail call i32 (ptr, ptr, ...) @fprintf(ptr noundef %13, ptr noundef nonnull @.str.16, i64 noundef %14) #18
  tail call fastcc void @graphviz_exit() #19
  unreachable

gv_calloc.exit:                                   ; preds = %8
  store ptr %10, ptr @Heap, align 8, !tbaa !116
  %16 = load i8, ptr @Verbose, align 1, !tbaa !15
  %.not = icmp eq i8 %16, 0
  br i1 %.not, label %20, label %17

17:                                               ; preds = %gv_calloc.exit
  %18 = load ptr, ptr @stderr, align 8, !tbaa !3
  %19 = tail call i64 @fwrite(ptr nonnull @.str.14, i64 28, i64 1, ptr %18) #22
  tail call void @start_timer() #21
  br label %20

20:                                               ; preds = %17, %gv_calloc.exit
  %21 = tail call ptr @agfstnode(ptr noundef %0) #21
  %.not68 = icmp eq ptr %21, null
  br i1 %.not68, label %._crit_edge, label %.lr.ph

.lr.ph:                                           ; preds = %20, %.lr.ph
  %.09 = phi ptr [ %22, %.lr.ph ], [ %21, %20 ]
  tail call void @s1(ptr noundef %0, ptr noundef nonnull %.09)
  %22 = tail call ptr @agnxtnode(ptr noundef %0, ptr noundef nonnull %.09) #21
  %.not6 = icmp eq ptr %22, null
  br i1 %.not6, label %._crit_edge, label %.lr.ph, !llvm.loop !120

._crit_edge:                                      ; preds = %.lr.ph, %20
  %23 = load i8, ptr @Verbose, align 1, !tbaa !15
  %.not7 = icmp eq i8 %23, 0
  br i1 %.not7, label %28, label %24

24:                                               ; preds = %._crit_edge
  %25 = load ptr, ptr @stderr, align 8, !tbaa !3
  %26 = tail call double @elapsed_sec() #21
  %27 = tail call i32 (ptr, ptr, ...) @fprintf(ptr noundef %25, ptr noundef nonnull @.str.8, double noundef %26) #18
  br label %28

28:                                               ; preds = %24, %._crit_edge
  %29 = load ptr, ptr @Heap, align 8, !tbaa !116
  tail call void @free(ptr noundef %29) #21
  ret void
}